; Function Attrs: nounwind sspstrong uwtable
define internal noundef i64 @rb_gzfile_set_lineno(i64 noundef %0, i64 noundef returned %1) #0 {
  %3 = tail call ptr @rb_check_typeddata(i64 noundef %0, ptr noundef nonnull @gzfile_data_type) #18
  %4 = load i64, ptr %3, align 8, !tbaa !113
  %5 = and i64 %4, 1
  %.not.i = icmp eq i64 %5, 0
  br i1 %.not.i, label %6, label %get_gzfile.exit

6:                                                ; preds = %2
  %7 = load i64, ptr @cGzError, align 8, !tbaa !6
  tail call void (i64, ptr, ...) @rb_raise(i64 noundef %7, ptr noundef nonnull @.str.165) #19
  unreachable

get_gzfile.exit:                                  ; preds = %2
  %8 = and i64 %1, 1
  %.not.i3 = icmp eq i64 %8, 0
  br i1 %.not.i3, label %11, label %9

9:                                                ; preds = %get_gzfile.exit
  %10 = tail call i64 @rb_fix2int(i64 noundef %1) #18
  br label %rb_num2int_inline.exit

11:                                               ; preds = %get_gzfile.exit
  %12 = tail call i64 @rb_num2int(i64 noundef %1) #18
  br label %rb_num2int_inline.exit

rb_num2int_inline.exit:                           ; preds = %9, %11
  %.0.i = phi i64 [ %10, %9 ], [ %12, %11 ]
  %13 = trunc i64 %.0.i to i32
  %14 = getelementptr inbounds nuw i8, ptr %3, i64 204
  store i32 %13, ptr %14, align 4, !tbaa !124
  ret i64 %1
}